; Function Attrs: nounwind uwtable
define internal noundef i32 @be_filter_disable(ptr noundef %0, i16 noundef signext %1) #0 {
  %3 = and i16 %1, 4
  %.not = icmp eq i16 %3, 0
  br i1 %.not, label %7, label %4

4:                                                ; preds = %2
  %5 = getelementptr inbounds nuw i8, ptr %0, i64 136
  %6 = tail call i32 @event_del(ptr noundef nonnull %5) #3
  br label %7

7:                                                ; preds = %4, %2
  %8 = and i16 %1, 2
  %.not5 = icmp eq i16 %8, 0
  br i1 %.not5, label %14, label %9

9:                                                ; preds = %7
  %10 = getelementptr inbounds nuw i8, ptr %0, i64 16
  %11 = tail call i32 @event_del(ptr noundef nonnull %10) #3
  %12 = getelementptr inbounds nuw i8, ptr %0, i64 520
  %13 = load ptr, ptr %12, align 8
  tail call void @bufferevent_suspend_read_(ptr noundef %13, i16 noundef zeroext 16) #3
  br label %14

14:                                               ; preds = %9, %7
  ret i32 0
}